target datalayout = "e-m:e-p270:32:32-p271:32:32-p272:64:64-i64:64-i128:128-f80:128-n8:16:32:64-S128"
target triple = "x86_64-pc-linux-gnu"

%struct.MBCSData = type { %struct.NewConverter, ptr, [8192 x %struct._MBCSToUFallback], i32, ptr, [1088 x i16], [64448 x i16], [64448 x i32], ptr, i32, i32, [1024 x i16], i16, i8, i8 }
%struct.NewConverter = type { ptr, ptr, ptr, ptr }
%struct._MBCSToUFallback = type { i32, i32 }

@.str = private unnamed_addr constant [15 x i8] c"out of memory\0A\00", align 1

; Function Attrs: mustprogress nounwind uwtable
define internal void @_ZL8MBCSInitP8MBCSDataP7UCMFile(ptr noundef %0, ptr noundef %1) #0 {
  %3 = alloca ptr, align 8
  %4 = alloca ptr, align 8
  store ptr %0, ptr %3, align 8, !tbaa !19
  store ptr %1, ptr %4, align 8, !tbaa !18
  %5 = load ptr, ptr %3, align 8, !tbaa !19
  call void @llvm.memset.p0.i64(ptr align 8 %5, i8 0, i64 456528, i1 false)
  %6 = load ptr, ptr %4, align 8, !tbaa !18
  %7 = load ptr, ptr %3, align 8, !tbaa !19
  %8 = getelementptr inbounds nuw %struct.MBCSData, ptr %7, i32 0, i32 1
  store ptr %6, ptr %8, align 8, !tbaa !21
  %9 = load ptr, ptr %3, align 8, !tbaa !19
  %10 = getelementptr inbounds nuw %struct.MBCSData, ptr %9, i32 0, i32 0
  %11 = getelementptr inbounds nuw %struct.NewConverter, ptr %10, i32 0, i32 0
  store ptr @_ZL9MBCSCloseP12NewConverter, ptr %11, align 8, !tbaa !22
  %12 = load ptr, ptr %3, align 8, !tbaa !19
  %13 = getelementptr inbounds nuw %struct.MBCSData, ptr %12, i32 0, i32 0
  %14 = getelementptr inbounds nuw %struct.NewConverter, ptr %13, i32 0, i32 1
  store ptr @_ZL11MBCSIsValidP12NewConverterPKhi, ptr %14, align 8, !tbaa !23
  %15 = load ptr, ptr %3, align 8, !tbaa !19
  %16 = getelementptr inbounds nuw %struct.MBCSData, ptr %15, i32 0, i32 0
  %17 = getelementptr inbounds nuw %struct.NewConverter, ptr %16, i32 0, i32 2
  store ptr @_ZL12MBCSAddTableP12NewConverterP8UCMTableP20UConverterStaticData, ptr %17, align 8, !tbaa !24
  %18 = load ptr, ptr %3, align 8, !tbaa !19
  %19 = getelementptr inbounds nuw %struct.MBCSData, ptr %18, i32 0, i32 0
  %20 = getelementptr inbounds nuw %struct.NewConverter, ptr %19, i32 0, i32 3
  store ptr @_ZL9MBCSWriteP12NewConverterPK20UConverterStaticDataP14UNewDataMemoryi, ptr %20, align 8, !tbaa !25
  ret void
}

; Function Attrs: mustprogress uwtable
define dso_local ptr @MBCSOpen(ptr noundef %0) #2 {
  %2 = alloca ptr, align 8
  %3 = alloca ptr, align 8
  store ptr %0, ptr %2, align 8, !tbaa !18
  call void @llvm.lifetime.start.p0(i64 8, ptr %3) #10
  %4 = call noalias ptr @uprv_malloc_77(i64 noundef 456528) #11
  store ptr %4, ptr %3, align 8, !tbaa !19
  %5 = load ptr, ptr %3, align 8, !tbaa !19
  %6 = icmp eq ptr %5, null
  br i1 %6, label %7, label %9

7:                                                ; preds = %1
  %8 = call i32 (ptr, ...) @printf(ptr noundef @.str)
  call void @exit(i32 noundef 7) #12
  unreachable

9:                                                ; preds = %1
  %10 = load ptr, ptr %3, align 8, !tbaa !19
  %11 = load ptr, ptr %2, align 8, !tbaa !18
  call void @_ZL8MBCSInitP8MBCSDataP7UCMFile(ptr noundef %10, ptr noundef %11)
  %12 = load ptr, ptr %3, align 8, !tbaa !19
  %13 = getelementptr inbounds nuw %struct.MBCSData, ptr %12, i32 0, i32 0
  call void @llvm.lifetime.end.p0(i64 8, ptr %3) #10
  ret ptr %13
}