; Function Attrs: mustprogress uwtable
define dso_local noalias nonnull ptr @MBCSOpen(ptr noundef %0) local_unnamed_addr #2 {
  %2 = tail call noalias dereferenceable_or_null(456528) ptr @uprv_malloc_77(i64 noundef 456528) #13
  %3 = icmp eq ptr %2, null
  br i1 %3, label %4, label %5

4:                                                ; preds = %1
  %puts = tail call i32 @puts(ptr nonnull dereferenceable(1) @str)
  tail call void @exit(i32 noundef 7) #14
  unreachable

5:                                                ; preds = %1
  %6 = getelementptr inbounds nuw i8, ptr %2, i64 40
  tail call void @llvm.memset.p0.i64(ptr noundef nonnull align 8 dereferenceable(456488) %6, i8 0, i64 456488, i1 false)
  %7 = getelementptr inbounds nuw i8, ptr %2, i64 32
  store ptr %0, ptr %7, align 8, !tbaa !18
  store ptr @_ZL9MBCSCloseP12NewConverter, ptr %2, align 8, !tbaa !19
  %8 = getelementptr inbounds nuw i8, ptr %2, i64 8
  store ptr @_ZL11MBCSIsValidP12NewConverterPKhi, ptr %8, align 8, !tbaa !20
  %9 = getelementptr inbounds nuw i8, ptr %2, i64 16
  store ptr @_ZL12MBCSAddTableP12NewConverterP8UCMTableP20UConverterStaticData, ptr %9, align 8, !tbaa !21
  %10 = getelementptr inbounds nuw i8, ptr %2, i64 24
  store ptr @_ZL9MBCSWriteP12NewConverterPK20UConverterStaticDataP14UNewDataMemoryi, ptr %10, align 8, !tbaa !22
  ret ptr %2
}